(lp0
(dp1
S'index'
p2
I0
sS'about'
p3
S'Enim Lorem reprehenderit exercitation aute ex laborum excepteur culpa adipisicing id in. Fugiat elit incididunt eu ex Lorem in occaecat. Excepteur aute non exercitation ullamco Lorem magna reprehenderit commodo ullamco anim excepteur exercitation. In pariatur velit id nostrud proident deserunt id occaecat est ex eu officia minim elit. Ea voluptate cupidatat proident sint nisi adipisicing veniam adipisicing do tempor nisi tempor. Tempor minim ullamco culpa duis irure pariatur adipisicing occaecat incididunt ut officia. Id culpa exercitation reprehenderit et non voluptate anim reprehenderit deserunt culpa incididunt eiusmod do mollit.\r\n'
p4
sS'guid'
p5
S'615abbae-a778-4c91-b919-251123fda01b'
p6
sS'name'
p7
S'Stephanie Gonzales'
p8
sS'picture'
p9
S'http://placehold.it/32x32'
p10
sS'gender'
p11
S'female'
p12
sS'age'
p13
I34
sS'tags'
p14
(lp15
S'ipsum'
p16
aS'magna'
p17
aS'ut'
p18
aS'do'
p19
aS'qui'
p20
aS'veniam'
p21
aS'reprehenderit'
p22
asS'registered'
p23
S'2014-11-22T04:53:41 -02:00'
p24
sS'greeting'
p25
S'Hello, Stephanie Gonzales! You have 1 unread messages.'
p26
sS'longitude'
p27
F-96.691061
sS'email'
p28
S'stephaniegonzales@rubadub.com'
p29
sS'eyeColor'
p30
S'blue'
p31
sS'phone'
p32
S'+1 (876) 489-3261'
p33
sS'address'
p34
S'718 Ditmars Street, Sunwest, Illinois, 7431'
p35
sS'latitude'
p36
F68.565082
sS'balance'
p37
S'$2,557.82'
p38
sS'_id'
p39
S'5da62f2fff36ec53e0370920'
p40
sS'friends'
p41
(lp42
(dp43
S'id'
p44
I0
sg7
S'Osborn Benjamin'
p45
sa(dp46
g44
I1
sg7
S'Young Tucker'
p47
sa(dp48
g44
I2
sg7
S'Gwen Jimenez'
p49
sasS'company'
p50
S'RUBADUB'
p51
sS'favoriteFruit'
p52
S'banana'
p53
sa(dp54
g2
I1
sg3
S'Id aute deserunt proident amet pariatur nulla proident sunt ea et. Consequat minim consequat nulla minim ipsum amet nisi ex nulla id aliquip commodo ipsum eu. Ex occaecat reprehenderit velit ex pariatur minim. Et ut minim Lorem excepteur in ullamco ipsum incididunt proident. Irure laboris incididunt incididunt laboris anim ullamco ea.\r\n'
p55
sg5
S'5cdff29d-9568-4403-aed9-2b0ea8b37a44'
p56
sg7
S'Simon Miller'
p57
sg9
g10
sg11
S'male'
p58
sg13
I24
sg14
(lp59
S'incididunt'
p60
aS'consequat'
p61
aS'irure'
p62
aS'deserunt'
p63
aS'nostrud'
p64
aS'velit'
p65
aS'quis'
p66
asg23
S'2015-04-06T10:17:28 -03:00'
p67
sg25
S'Hello, Simon Miller! You have 4 unread messages.'
p68
sg27
F6.067039
sg28
S'simonmiller@eclipsent.com'
p69
sg30
S'brown'
p70
sg32
S'+1 (992) 539-2872'
p71
sg34
S'824 Marconi Place, Tampico, Oklahoma, 1641'
p72
sg36
F83.426476
sg37
S'$3,042.84'
p73
sg39
S'5da62f2fe95a6b1487beec46'
p74
sg41
(lp75
(dp76
g44
I0
sg7
S'David Carney'
p77
sa(dp78
g44
I1
sg7
S'Melisa Greer'
p79
sa(dp80
g44
I2
sg7
S'Joyce Bishop'
p81
sasg50
S'ECLIPSENT'
p82
sg52
S'strawberry'
p83
sa(dp84
g2
I2
sg3
S'Lorem ad ut sint proident officia aliquip. In do ipsum do ipsum anim elit. Dolore non aliquip dolor mollit occaecat enim fugiat anim. Amet culpa consequat sunt magna mollit consectetur et laborum pariatur eiusmod. Nisi anim Lorem dolor ut adipisicing esse ex pariatur enim aute commodo irure sunt nisi. Qui incididunt consequat aliquip voluptate sint consectetur commodo cillum adipisicing labore. Aliquip eu exercitation laboris reprehenderit ea ad consequat labore ex.\r\n'
p85
sg5
S'c18c6cbf-28ef-4017-89f4-728d1b80345e'
p86
sg7
S'Danielle Stevenson'
p87
sg9
g10
sg11
g12
sg13
I30
sg14
(lp88
S'elit'
p89
aS'sit'
p90
ag22
ag16
ag17
aS'culpa'
p91
aS'fugiat'
p92
asg23
S'2017-02-19T03:44:56 -02:00'
p93
sg25
S'Hello, Danielle Stevenson! You have 7 unread messages.'
p94
sg27
F122.485177
sg28
S'daniellestevenson@letpro.com'
p95
sg30
S'green'
p96
sg32
S'+1 (885) 415-2338'
p97
sg34
S'675 Poly Place, Thomasville, Virgin Islands, 1387'
p98
sg36
F-62.997801
sg37
S'$3,043.08'
p99
sg39
S'5da62f2fb402eb723b0ae444'
p100
sg41
(lp101
(dp102
g44
I0
sg7
S'Velasquez Cook'
p103
sa(dp104
g44
I1
sg7
S'Deleon Vasquez'
p105
sa(dp106
g44
I2
sg7
S'Green Crosby'
p107
sasg50
S'LETPRO'
p108
sg52
g53
sa(dp109
g2
I3
sg3
S'Aute deserunt dolor est aute eu nisi Lorem dolor nostrud. Ad consequat et nisi occaecat sint anim nostrud anim deserunt. Sint cillum nulla do anim ea do dolor. Duis fugiat ipsum id proident nostrud eu consectetur ea qui deserunt ad. Occaecat consectetur ullamco ea exercitation aliqua fugiat consequat nisi aliquip labore qui ex. Ea mollit nisi irure velit fugiat et dolore.\r\n'
p110
sg5
S'4864954e-c986-4a06-ab95-432e63d1ef09'
p111
sg7
S'Valdez Vincent'
p112
sg9
g10
sg11
g58
sg13
I30
sg14
(lp113
g63
aS'pariatur'
p114
aS'voluptate'
p115
aS'sunt'
p116
aS'excepteur'
p117
aS'dolor'
p118
aS'est'
p119
asg23
S'2015-12-09T05:14:44 -02:00'
p120
sg25
S'Hello, Valdez Vincent! You have 1 unread messages.'
p121
sg27
F-28.884002
sg28
S'valdezvincent@comveyor.com'
p122
sg30
g96
sg32
S'+1 (854) 587-2828'
p123
sg34
S'942 Hausman Street, Day, Michigan, 257'
p124
sg36
F46.32799
sg37
S'$1,138.38'
p125
sg39
S'5da62f2f75d0095dfd47224e'
p126
sg41
(lp127
(dp128
g44
I0
sg7
S'Trisha Herrera'
p129
sa(dp130
g44
I1
sg7
S'Weeks Steele'
p131
sa(dp132
g44
I2
sg7
S'Booker Wilcox'
p133
sasg50
S'COMVEYOR'
p134
sg52
g83
sa(dp135
g2
I4
sg3
S'Voluptate ad id consequat esse sunt do esse. Sunt duis ipsum ipsum ex veniam tempor aute et fugiat quis consectetur. Excepteur eu consectetur ipsum dolor dolor Lorem quis occaecat labore. Esse Lorem aliqua magna voluptate.\r\n'
p136
sg5
S'37fa48d8-77b3-4cd1-b1aa-e7d6719cb513'
p137
sg7
S'Horton Mercado'
p138
sg9
g10
sg11
g58
sg13
I29
sg14
(lp139
S'in'
p140
aS'laborum'
p141
aS'dolore'
p142
aS'exercitation'
p143
ag143
aS'mollit'
p144
ag92
asg23
S'2015-06-07T01:41:08 -03:00'
p145
sg25
S'Hello, Horton Mercado! You have 8 unread messages.'
p146
sg27
F12.410139
sg28
S'hortonmercado@techmania.com'
p147
sg30
g70
sg32
S'+1 (826) 584-2837'
p148
sg34
S'177 Glenwood Road, Norvelt, Hawaii, 9337'
p149
sg36
F1.2653
sg37
S'$1,196.95'
p150
sg39
S'5da62f2f51522523ff211acb'
p151
sg41
(lp152
(dp153
g44
I0
sg7
S'Josefina Foster'
p154
sa(dp155
g44
I1
sg7
S'Pittman Carson'
p156
sa(dp157
g44
I2
sg7
S'Beard Maldonado'
p158
sasg50
S'TECHMANIA'
p159
sg52
g53
sa(dp160
g2
I5
sg3
S'Aliquip fugiat nulla duis ex consectetur. Fugiat velit ex consequat quis sunt reprehenderit consequat officia officia sit culpa. Excepteur laborum ea aute ullamco anim elit aute irure.\r\n'
p161
sg5
S'eb9e1cd3-6eb2-4111-b64b-0688ab717911'
p162
sg7
S'Jones Jordan'
p163
sg9
g10
sg11
g58
sg13
I28
sg14
(lp164
S'consectetur'
p165
ag165
aS'sint'
p166
ag17
ag166
aS'minim'
p167
ag115
asg23
S'2019-08-16T07:18:10 -03:00'
p168
sg25
S'Hello, Jones Jordan! You have 2 unread messages.'
p169
sg27
F-45.17805
sg28
S'jonesjordan@wazzu.com'
p170
sg30
g31
sg32
S'+1 (885) 400-2472'
p171
sg34
S'884 Ivan Court, Cumberland, Wyoming, 3616'
p172
sg36
F10.444864
sg37
S'$1,819.25'
p173
sg39
S'5da62f2fad6123cb2821a397'
p174
sg41
(lp175
(dp176
g44
I0
sg7
S'Cherry Collier'
p177
sa(dp178
g44
I1
sg7
S'Laurel Stafford'
p179
sa(dp180
g44
I2
sg7
S'Twila Bryant'
p181
sasg50
S'WAZZU'
p182
sg52
g83
sa.